; Function Attrs: inlinehint mustprogress nounwind uwtable
define internal fastcc void @"_ZN5boost4asio6detail15work_dispatcherINS1_7binder1INS1_19iterator_connect_opINS0_2ip3tcpENS0_9execution12any_executorIJNS7_12context_as_tIRNS0_17execution_contextEEENS7_6detail8blocking7never_tILi0EEENS7_11prefer_onlyINSE_10possibly_tILi0EEEEENSH_INSD_16outstanding_work9tracked_tILi0EEEEENSH_INSL_11untracked_tILi0EEEEENSH_INSD_12relationship6fork_tILi0EEEEENSH_INSS_14continuation_tILi0EEEEEEEENS5_23basic_resolver_iteratorIS6_EENS1_25default_connect_conditionEZ4mainE3$_1EENS_6system10error_codeEEESZ_vED2Ev"(ptr noundef nonnull align 8 dereferenceable(144) %0) unnamed_addr #3 align 2 personality ptr @__gxx_personality_v0 {
  %2 = getelementptr inbounds nuw i8, ptr %0, i64 96
  %3 = getelementptr inbounds nuw i8, ptr %0, i64 112
  %4 = load ptr, ptr %3, align 8, !tbaa !83
  %5 = load ptr, ptr %4, align 8, !tbaa !130
  invoke void %5(ptr noundef nonnull align 8 dereferenceable(48) %2)
          to label %_ZN5boost4asio9execution6detail17any_executor_baseD2Ev.exit unwind label %6

6:                                                ; preds = %1
  %7 = landingpad { ptr, i32 }
          catch ptr null
  %8 = extractvalue { ptr, i32 } %7, 0
  tail call void @__clang_call_terminate(ptr %8) #40
  unreachable

_ZN5boost4asio9execution6detail17any_executor_baseD2Ev.exit: ; preds = %1
  %9 = getelementptr inbounds nuw i8, ptr %0, i64 40
  %10 = load ptr, ptr %9, align 8, !tbaa !151
  %.not.i.i.i.i.i = icmp eq ptr %10, null
  br i1 %.not.i.i.i.i.i, label %_ZN5boost4asio2ip23basic_resolver_iteratorINS1_3tcpEED2Ev.exit.i.i, label %11

11:                                               ; preds = %_ZN5boost4asio9execution6detail17any_executor_baseD2Ev.exit
  %12 = getelementptr inbounds nuw i8, ptr %10, i64 8
  %13 = load atomic i64, ptr %12 acquire, align 8
  %14 = icmp eq i64 %13, 4294967297
  %15 = trunc i64 %13 to i32
  br i1 %14, label %16, label %24

16:                                               ; preds = %11
  store i32 0, ptr %12, align 8, !tbaa !163
  %17 = getelementptr inbounds nuw i8, ptr %10, i64 12
  store i32 0, ptr %17, align 4, !tbaa !165
  %18 = load ptr, ptr %10, align 8, !tbaa !4
  %19 = getelementptr inbounds nuw i8, ptr %18, i64 16
  %20 = load ptr, ptr %19, align 8
  tail call void %20(ptr noundef nonnull align 8 dereferenceable(16) %10) #37
  %21 = load ptr, ptr %10, align 8, !tbaa !4
  %22 = getelementptr inbounds nuw i8, ptr %21, i64 24
  %23 = load ptr, ptr %22, align 8
  tail call void %23(ptr noundef nonnull align 8 dereferenceable(16) %10) #37
  br label %_ZN5boost4asio2ip23basic_resolver_iteratorINS1_3tcpEED2Ev.exit.i.i

24:                                               ; preds = %11
  %25 = load i8, ptr @__libc_single_threaded, align 1, !tbaa !19
  %.not.i.i.i.i.i.i = icmp eq i8 %25, 0
  br i1 %.not.i.i.i.i.i.i, label %28, label %26

26:                                               ; preds = %24
  %27 = add nsw i32 %15, -1
  store i32 %27, ptr %12, align 4, !tbaa !21
  br label %_ZN9__gnu_cxx27__exchange_and_add_dispatchEPii.exit.i.i.i.i.i.i

28:                                               ; preds = %24
  %29 = atomicrmw volatile add ptr %12, i32 -1 acq_rel, align 4
  br label %_ZN9__gnu_cxx27__exchange_and_add_dispatchEPii.exit.i.i.i.i.i.i

_ZN9__gnu_cxx27__exchange_and_add_dispatchEPii.exit.i.i.i.i.i.i: ; preds = %28, %26
  %.0.i.i.i.i.i.i.i = phi i32 [ %15, %26 ], [ %29, %28 ]
  %30 = icmp eq i32 %.0.i.i.i.i.i.i.i, 1
  br i1 %30, label %31, label %_ZN5boost4asio2ip23basic_resolver_iteratorINS1_3tcpEED2Ev.exit.i.i, !prof !15

31:                                               ; preds = %_ZN9__gnu_cxx27__exchange_and_add_dispatchEPii.exit.i.i.i.i.i.i
  tail call void @_ZNSt16_Sp_counted_baseILN9__gnu_cxx12_Lock_policyE2EE24_M_release_last_use_coldEv(ptr noundef nonnull align 8 dereferenceable(16) %10) #37
  br label %_ZN5boost4asio2ip23basic_resolver_iteratorINS1_3tcpEED2Ev.exit.i.i

_ZN5boost4asio2ip23basic_resolver_iteratorINS1_3tcpEED2Ev.exit.i.i: ; preds = %31, %_ZN9__gnu_cxx27__exchange_and_add_dispatchEPii.exit.i.i.i.i.i.i, %16, %_ZN5boost4asio9execution6detail17any_executor_baseD2Ev.exit
  %32 = getelementptr inbounds nuw i8, ptr %0, i64 16
  %33 = load ptr, ptr %32, align 8, !tbaa !151
  %.not.i.i.i1.i.i = icmp eq ptr %33, null
  br i1 %.not.i.i.i1.i.i, label %"_ZN5boost4asio6detail7binder1INS1_19iterator_connect_opINS0_2ip3tcpENS0_9execution12any_executorIJNS6_12context_as_tIRNS0_17execution_contextEEENS6_6detail8blocking7never_tILi0EEENS6_11prefer_onlyINSD_10possibly_tILi0EEEEENSG_INSC_16outstanding_work9tracked_tILi0EEEEENSG_INSK_11untracked_tILi0EEEEENSG_INSC_12relationship6fork_tILi0EEEEENSG_INSR_14continuation_tILi0EEEEEEEENS4_23basic_resolver_iteratorIS5_EENS1_25default_connect_conditionEZ4mainE3$_1EENS_6system10error_codeEED2Ev.exit", label %34

34:                                               ; preds = %_ZN5boost4asio2ip23basic_resolver_iteratorINS1_3tcpEED2Ev.exit.i.i
  %35 = getelementptr inbounds nuw i8, ptr %33, i64 8
  %36 = load atomic i64, ptr %35 acquire, align 8
  %37 = icmp eq i64 %36, 4294967297
  %38 = trunc i64 %36 to i32
  br i1 %37, label %39, label %47

39:                                               ; preds = %34
  store i32 0, ptr %35, align 8, !tbaa !163
  %40 = getelementptr inbounds nuw i8, ptr %33, i64 12
  store i32 0, ptr %40, align 4, !tbaa !165
  %41 = load ptr, ptr %33, align 8, !tbaa !4
  %42 = getelementptr inbounds nuw i8, ptr %41, i64 16
  %43 = load ptr, ptr %42, align 8
  tail call void %43(ptr noundef nonnull align 8 dereferenceable(16) %33) #37
  %44 = load ptr, ptr %33, align 8, !tbaa !4
  %45 = getelementptr inbounds nuw i8, ptr %44, i64 24
  %46 = load ptr, ptr %45, align 8
  tail call void %46(ptr noundef nonnull align 8 dereferenceable(16) %33) #37
  br label %"_ZN5boost4asio6detail7binder1INS1_19iterator_connect_opINS0_2ip3tcpENS0_9execution12any_executorIJNS6_12context_as_tIRNS0_17execution_contextEEENS6_6detail8blocking7never_tILi0EEENS6_11prefer_onlyINSD_10possibly_tILi0EEEEENSG_INSC_16outstanding_work9tracked_tILi0EEEEENSG_INSK_11untracked_tILi0EEEEENSG_INSC_12relationship6fork_tILi0EEEEENSG_INSR_14continuation_tILi0EEEEEEEENS4_23basic_resolver_iteratorIS5_EENS1_25default_connect_conditionEZ4mainE3$_1EENS_6system10error_codeEED2Ev.exit"

47:                                               ; preds = %34
  %48 = load i8, ptr @__libc_single_threaded, align 1, !tbaa !19
  %.not.i.i.i.i2.i.i = icmp eq i8 %48, 0
  br i1 %.not.i.i.i.i2.i.i, label %51, label %49

49:                                               ; preds = %47
  %50 = add nsw i32 %38, -1
  store i32 %50, ptr %35, align 4, !tbaa !21
  br label %_ZN9__gnu_cxx27__exchange_and_add_dispatchEPii.exit.i.i.i.i3.i.i

51:                                               ; preds = %47
  %52 = atomicrmw volatile add ptr %35, i32 -1 acq_rel, align 4
  br label %_ZN9__gnu_cxx27__exchange_and_add_dispatchEPii.exit.i.i.i.i3.i.i

_ZN9__gnu_cxx27__exchange_and_add_dispatchEPii.exit.i.i.i.i3.i.i: ; preds = %51, %49
  %.0.i.i.i.i.i4.i.i = phi i32 [ %38, %49 ], [ %52, %51 ]
  %53 = icmp eq i32 %.0.i.i.i.i.i4.i.i, 1
  br i1 %53, label %54, label %"_ZN5boost4asio6detail7binder1INS1_19iterator_connect_opINS0_2ip3tcpENS0_9execution12any_executorIJNS6_12context_as_tIRNS0_17execution_contextEEENS6_6detail8blocking7never_tILi0EEENS6_11prefer_onlyINSD_10possibly_tILi0EEEEENSG_INSC_16outstanding_work9tracked_tILi0EEEEENSG_INSK_11untracked_tILi0EEEEENSG_INSC_12relationship6fork_tILi0EEEEENSG_INSR_14continuation_tILi0EEEEEEEENS4_23basic_resolver_iteratorIS5_EENS1_25default_connect_conditionEZ4mainE3$_1EENS_6system10error_codeEED2Ev.exit", !prof !15

54:                                               ; preds = %_ZN9__gnu_cxx27__exchange_and_add_dispatchEPii.exit.i.i.i.i3.i.i
  tail call void @_ZNSt16_Sp_counted_baseILN9__gnu_cxx12_Lock_policyE2EE24_M_release_last_use_coldEv(ptr noundef nonnull align 8 dereferenceable(16) %33) #37
  br label %"_ZN5boost4asio6detail7binder1INS1_19iterator_connect_opINS0_2ip3tcpENS0_9execution12any_executorIJNS6_12context_as_tIRNS0_17execution_contextEEENS6_6detail8blocking7never_tILi0EEENS6_11prefer_onlyINSD_10possibly_tILi0EEEEENSG_INSC_16outstanding_work9tracked_tILi0EEEEENSG_INSK_11untracked_tILi0EEEEENSG_INSC_12relationship6fork_tILi0EEEEENSG_INSR_14continuation_tILi0EEEEEEEENS4_23basic_resolver_iteratorIS5_EENS1_25default_connect_conditionEZ4mainE3$_1EENS_6system10error_codeEED2Ev.exit"

"_ZN5boost4asio6detail7binder1INS1_19iterator_connect_opINS0_2ip3tcpENS0_9execution12any_executorIJNS6_12context_as_tIRNS0_17execution_contextEEENS6_6detail8blocking7never_tILi0EEENS6_11prefer_onlyINSD_10possibly_tILi0EEEEENSG_INSC_16outstanding_work9tracked_tILi0EEEEENSG_INSK_11untracked_tILi0EEEEENSG_INSC_12relationship6fork_tILi0EEEEENSG_INSR_14continuation_tILi0EEEEEEEENS4_23basic_resolver_iteratorIS5_EENS1_25default_connect_conditionEZ4mainE3$_1EENS_6system10error_codeEED2Ev.exit": ; preds = %_ZN5boost4asio2ip23basic_resolver_iteratorINS1_3tcpEED2Ev.exit.i.i, %39, %_ZN9__gnu_cxx27__exchange_and_add_dispatchEPii.exit.i.i.i.i3.i.i, %54
  ret void
}